; Function Attrs: mustprogress uwtable
define void @_ZN6icu_7718CalendarAstronomerC2Ed(ptr noundef nonnull writeonly align 8 captures(none) dereferenceable(57) initializes((0, 57)) %0, double noundef %1) unnamed_addr #0 align 2 {
  store double %1, ptr %0, align 8, !tbaa !3
  %3 = getelementptr inbounds nuw i8, ptr %0, i64 40
  %4 = getelementptr inbounds nuw i8, ptr %0, i64 56
  tail call void @llvm.memset.p0.i64(ptr noundef nonnull align 8 dereferenceable(17) %3, i8 0, i64 17, i1 false)
  %5 = tail call double @uprv_getNaN_77()
  %6 = getelementptr inbounds nuw i8, ptr %0, i64 8
  store double %5, ptr %6, align 8, !tbaa !9
  %7 = getelementptr inbounds nuw i8, ptr %0, i64 16
  store double %5, ptr %7, align 8, !tbaa !10
  %8 = getelementptr inbounds nuw i8, ptr %0, i64 24
  store double %5, ptr %8, align 8, !tbaa !11
  %9 = getelementptr inbounds nuw i8, ptr %0, i64 32
  store double %5, ptr %9, align 8, !tbaa !12
  store i8 0, ptr %4, align 8, !tbaa !13
  ret void
}